; Function Attrs: mustprogress nofree nounwind willreturn memory(read) uwtable
define noundef zeroext i1 @_ZN8facebook5velox9functions17JsonPathTokenizer14isDotKeyFormatEc(ptr nocapture noundef nonnull readnone align 8 dereferenceable(24) %this, i8 noundef signext %c) local_unnamed_addr #4 align 2 {
entry:
  %switch.tableidx = add i8 %c, -42
  %0 = icmp ult i8 %switch.tableidx, 54
  br i1 %0, label %switch.hole_check, label %lor.rhs.i

lor.rhs.i:                                        ; preds = %switch.hole_check, %entry
  %conv.i = sext i8 %c to i32
  %call.i = tail call i32 @isalnum(i32 noundef %conv.i) #15
  %tobool.i = icmp ne i32 %call.i, 0
  br label %lor.end

switch.hole_check:                                ; preds = %entry
  %switch.maskindex = zext nneg i8 %switch.tableidx to i64
  %switch.shifted = lshr i64 9007199254806537, %switch.maskindex
  %1 = and i64 %switch.shifted, 1
  %switch.lobit.not = icmp eq i64 %1, 0
  br i1 %switch.lobit.not, label %lor.rhs.i, label %lor.end

lor.end:                                          ; preds = %switch.hole_check, %lor.rhs.i
  %2 = phi i1 [ %tobool.i, %lor.rhs.i ], [ true, %switch.hole_check ]
  ret i1 %2
}